; Function Attrs: mustprogress uwtable
define hidden void @_ZN19OpenColorIO_v2_4dev31ExponentWithLinearTransformImpl16setNegativeStyleENS_13NegativeStyleE(ptr noundef nonnull align 8 dereferenceable(280) %this, i32 noundef %style) unnamed_addr #0 align 2 {
entry:
  %styleOp = alloca i32, align 4
  %vtable = load ptr, ptr %this, align 8
  %vfn = getelementptr inbounds i8, ptr %vtable, i64 8
  %0 = load ptr, ptr %vfn, align 8
  %call = tail call noundef i32 %0(ptr noundef nonnull align 8 dereferenceable(280) %this) #19
  %call2 = tail call noundef i32 @_ZN19OpenColorIO_v2_4dev11GammaOpData20ConvertStyleMonCurveENS_13NegativeStyleENS_18TransformDirectionE(i32 noundef %style, i32 noundef %call)
  store i32 %call2, ptr %styleOp, align 4
  %m_data.i = getelementptr inbounds i8, ptr %this, i64 8
  call void @_ZN19OpenColorIO_v2_4dev11GammaOpData8setStyleERKNS0_5StyleE(ptr noundef nonnull align 8 dereferenceable(272) %m_data.i, ptr noundef nonnull align 4 dereferenceable(4) %styleOp) #19
  ret void
}